; Function Attrs: nounwind uwtable
define internal void @RangeVarCallbackForRenameAttribute(ptr readnone captures(none) %0, i32 noundef %1, i32 %2, ptr readnone captures(none) %3) #0 {
  %5 = zext i32 %1 to i64
  %6 = tail call ptr @SearchSysCache1(i32 noundef 57, i64 noundef %5) #15
  %.not = icmp eq ptr %6, null
  br i1 %.not, label %13, label %7

7:                                                ; preds = %4
  %8 = getelementptr i8, ptr %6, i64 16
  %.val = load ptr, ptr %8, align 8
  %9 = getelementptr inbounds nuw i8, ptr %.val, i64 22
  %10 = load i8, ptr %9, align 2
  %11 = zext i8 %10 to i64
  %12 = getelementptr inbounds nuw i8, ptr %.val, i64 %11
  tail call fastcc void @renameatt_check(i32 noundef %1, ptr noundef %12, i1 noundef zeroext false)
  tail call void @ReleaseSysCache(ptr noundef nonnull %6) #15
  br label %13

13:                                               ; preds = %4, %7
  ret void
}